; Function Attrs: nounwind uwtable
define internal i32 @RSA_sign_loop(ptr noundef readonly captures(none) %0) #0 {
  %2 = load ptr, ptr %0, align 8, !tbaa !189
  %3 = getelementptr inbounds nuw i8, ptr %2, i64 16
  %4 = load ptr, ptr %3, align 8, !tbaa !53
  %5 = getelementptr inbounds nuw i8, ptr %2, i64 24
  %6 = load ptr, ptr %5, align 8, !tbaa !54
  %7 = getelementptr inbounds nuw i8, ptr %2, i64 80
  %8 = getelementptr inbounds nuw i8, ptr %2, i64 96
  %9 = load volatile i32, ptr @run, align 4, !tbaa !13
  %.not15 = icmp eq i32 %9, 0
  br i1 %.not15, label %.critedge, label %.lr.ph

.lr.ph:                                           ; preds = %1
  %10 = getelementptr inbounds nuw i8, ptr %2, i64 72
  br label %11

11:                                               ; preds = %.lr.ph, %26
  %.016 = phi i32 [ 0, %.lr.ph ], [ %27, %26 ]
  %.b = load i1, ptr @testmode, align 4
  %12 = select i1 %.b, i32 1, i32 2147483647
  %13 = icmp samesign ult i32 %.016, %12
  br i1 %13, label %14, label %.critedge

14:                                               ; preds = %11
  %15 = load i64, ptr %10, align 8, !tbaa !55
  store i64 %15, ptr %7, align 8, !tbaa !28
  %16 = load i32, ptr @testnum, align 4, !tbaa !13
  %17 = zext i32 %16 to i64
  %18 = getelementptr inbounds nuw ptr, ptr %8, i64 %17
  %19 = load ptr, ptr %18, align 8, !tbaa !15
  %20 = tail call i32 @EVP_PKEY_sign(ptr noundef %19, ptr noundef %6, ptr noundef nonnull %7, ptr noundef %4, i64 noundef 36) #14
  %21 = icmp slt i32 %20, 1
  br i1 %21, label %22, label %26

22:                                               ; preds = %14
  %23 = load ptr, ptr @bio_err, align 8, !tbaa !19
  %24 = tail call i32 (ptr, ptr, ...) @BIO_printf(ptr noundef %23, ptr noundef nonnull @.str.447) #14
  %25 = load ptr, ptr @bio_err, align 8, !tbaa !19
  tail call void @ERR_print_errors(ptr noundef %25) #14
  store i1 true, ptr @testmoderesult, align 4
  br label %.critedge

26:                                               ; preds = %14
  %27 = add nuw nsw i32 %.016, 1
  %28 = load volatile i32, ptr @run, align 4, !tbaa !13
  %.not = icmp eq i32 %28, 0
  br i1 %.not, label %.critedge, label %11, !llvm.loop !217

.critedge:                                        ; preds = %11, %26, %1, %22
  %.1 = phi i32 [ -1, %22 ], [ 0, %1 ], [ %.016, %11 ], [ %27, %26 ]
  ret i32 %.1
}